; Function Attrs: nounwind uwtable
define internal ptr @lxb_html_tokenizer_state_script_data_escape_start_dash(ptr nocapture noundef %0, ptr noundef readonly %1, ptr noundef readnone %2) #1 {
  %4 = load i8, ptr %1, align 1
  %5 = icmp eq i8 %4, 45
  %6 = getelementptr inbounds i8, ptr %0, i64 136
  %7 = load ptr, ptr %6, align 8
  %8 = getelementptr inbounds i8, ptr %0, i64 144
  %9 = load ptr, ptr %8, align 8
  br i1 %5, label %10, label %31

10:                                               ; preds = %3
  %11 = getelementptr inbounds i8, ptr %7, i64 3
  %12 = icmp ugt ptr %11, %9
  br i1 %12, label %13, label %27

13:                                               ; preds = %10
  %14 = getelementptr inbounds i8, ptr %0, i64 128
  %15 = load ptr, ptr %14, align 8
  %16 = ptrtoint ptr %15 to i64
  %17 = ptrtoint ptr %9 to i64
  %18 = add i64 %17, 4099
  %19 = sub i64 %18, %16
  %20 = tail call ptr @lexbor_realloc(ptr noundef %15, i64 noundef %19) #6
  store ptr %20, ptr %14, align 8
  %21 = icmp eq ptr %20, null
  br i1 %21, label %lxb_html_tokenizer_temp_append.exit, label %lxb_html_tokenizer_temp_realloc.exit.thread.i

lxb_html_tokenizer_temp_realloc.exit.thread.i:    ; preds = %13
  %22 = ptrtoint ptr %7 to i64
  %23 = sub i64 %22, %16
  %24 = getelementptr inbounds i8, ptr %20, i64 %23
  %25 = getelementptr inbounds i8, ptr %20, i64 %19
  store ptr %25, ptr %8, align 8
  br label %27

lxb_html_tokenizer_temp_append.exit:              ; preds = %13
  %26 = getelementptr inbounds i8, ptr %0, i64 232
  store i32 2, ptr %26, align 8
  br label %51

27:                                               ; preds = %10, %lxb_html_tokenizer_temp_realloc.exit.thread.i
  %28 = phi ptr [ %24, %lxb_html_tokenizer_temp_realloc.exit.thread.i ], [ %7, %10 ]
  tail call void @llvm.memcpy.p0.p0.i64(ptr noundef nonnull align 1 dereferenceable(3) %28, ptr noundef nonnull align 1 dereferenceable(3) @.str.2, i64 3, i1 false)
  %29 = getelementptr inbounds i8, ptr %28, i64 3
  store ptr %29, ptr %6, align 8
  store ptr @lxb_html_tokenizer_state_script_data_escaped_dash_dash, ptr %0, align 8
  %30 = getelementptr inbounds i8, ptr %1, i64 1
  br label %51

31:                                               ; preds = %3
  %32 = getelementptr inbounds i8, ptr %7, i64 2
  %33 = icmp ugt ptr %32, %9
  br i1 %33, label %34, label %48

34:                                               ; preds = %31
  %35 = getelementptr inbounds i8, ptr %0, i64 128
  %36 = load ptr, ptr %35, align 8
  %37 = ptrtoint ptr %36 to i64
  %38 = ptrtoint ptr %9 to i64
  %39 = add i64 %38, 4098
  %40 = sub i64 %39, %37
  %41 = tail call ptr @lexbor_realloc(ptr noundef %36, i64 noundef %40) #6
  store ptr %41, ptr %35, align 8
  %42 = icmp eq ptr %41, null
  br i1 %42, label %lxb_html_tokenizer_temp_append.exit13, label %lxb_html_tokenizer_temp_realloc.exit.thread.i12

lxb_html_tokenizer_temp_realloc.exit.thread.i12:  ; preds = %34
  %43 = ptrtoint ptr %7 to i64
  %44 = sub i64 %43, %37
  %45 = getelementptr inbounds i8, ptr %41, i64 %44
  %46 = getelementptr inbounds i8, ptr %41, i64 %40
  store ptr %46, ptr %8, align 8
  br label %48

lxb_html_tokenizer_temp_append.exit13:            ; preds = %34
  %47 = getelementptr inbounds i8, ptr %0, i64 232
  store i32 2, ptr %47, align 8
  br label %51

48:                                               ; preds = %31, %lxb_html_tokenizer_temp_realloc.exit.thread.i12
  %49 = phi ptr [ %45, %lxb_html_tokenizer_temp_realloc.exit.thread.i12 ], [ %7, %31 ]
  store i16 11553, ptr %49, align 1
  %50 = getelementptr inbounds i8, ptr %49, i64 2
  store ptr %50, ptr %6, align 8
  store ptr @lxb_html_tokenizer_state_script_data, ptr %0, align 8
  br label %51

51:                                               ; preds = %lxb_html_tokenizer_temp_append.exit13, %lxb_html_tokenizer_temp_append.exit, %48, %27
  %.0 = phi ptr [ %30, %27 ], [ %1, %48 ], [ %2, %lxb_html_tokenizer_temp_append.exit ], [ %2, %lxb_html_tokenizer_temp_append.exit13 ]
  ret ptr %.0
}